; Function Attrs: nounwind uwtable
define range(i32 0, 2) i32 @Aig_ManSpeedupNode_rec(ptr noundef %0, ptr noundef %1, ptr noundef %2) local_unnamed_addr #0 {
  %4 = getelementptr i8, ptr %0, i64 312
  %.val = load i32, ptr %4, align 8, !tbaa !3
  %5 = getelementptr i8, ptr %1, i64 32
  %.val16 = load i32, ptr %5, align 8, !tbaa !21
  %.not = icmp eq i32 %.val16, %.val
  br i1 %.not, label %53, label %6

6:                                                ; preds = %3
  %7 = getelementptr i8, ptr %1, i64 24
  %.val17 = load i64, ptr %7, align 8
  %8 = and i64 %.val17, 7
  %.not21 = icmp eq i64 %8, 2
  br i1 %.not21, label %53, label %9

9:                                                ; preds = %6
  store i32 %.val, ptr %5, align 8, !tbaa !21
  %10 = getelementptr i8, ptr %1, i64 8
  %.val19 = load ptr, ptr %10, align 8, !tbaa !22
  %11 = ptrtoint ptr %.val19 to i64
  %12 = and i64 %11, -2
  %13 = inttoptr i64 %12 to ptr
  %14 = tail call i32 @Aig_ManSpeedupNode_rec(ptr noundef nonnull %0, ptr noundef %13, ptr noundef %2)
  %.not14 = icmp eq i32 %14, 0
  br i1 %.not14, label %53, label %15

15:                                               ; preds = %9
  %16 = getelementptr i8, ptr %1, i64 16
  %.val20 = load ptr, ptr %16, align 8, !tbaa !23
  %17 = ptrtoint ptr %.val20 to i64
  %18 = and i64 %17, -2
  %19 = inttoptr i64 %18 to ptr
  %20 = tail call i32 @Aig_ManSpeedupNode_rec(ptr noundef nonnull %0, ptr noundef %19, ptr noundef %2)
  %.not15 = icmp eq i32 %20, 0
  br i1 %.not15, label %53, label %21

21:                                               ; preds = %15
  %22 = getelementptr inbounds nuw i8, ptr %2, i64 4
  %23 = load i32, ptr %22, align 4, !tbaa !24
  %24 = load i32, ptr %2, align 8, !tbaa !26
  %25 = icmp eq i32 %23, %24
  br i1 %25, label %26, label %.Vec_PtrGrow.exit11_crit_edge.i

.Vec_PtrGrow.exit11_crit_edge.i:                  ; preds = %21
  %.phi.trans.insert.i = getelementptr inbounds nuw i8, ptr %2, i64 8
  %.pre.i = load ptr, ptr %.phi.trans.insert.i, align 8, !tbaa !27
  br label %Vec_PtrPush.exit

26:                                               ; preds = %21
  %27 = icmp slt i32 %23, 16
  br i1 %27, label %28, label %36

28:                                               ; preds = %26
  %29 = getelementptr inbounds nuw i8, ptr %2, i64 8
  %30 = load ptr, ptr %29, align 8, !tbaa !27
  %.not9.i.i = icmp eq ptr %30, null
  br i1 %.not9.i.i, label %33, label %31

31:                                               ; preds = %28
  %32 = tail call dereferenceable_or_null(128) ptr @realloc(ptr noundef nonnull %30, i64 noundef 128) #11
  br label %Vec_PtrGrow.exit.i

33:                                               ; preds = %28
  %34 = tail call noalias dereferenceable_or_null(128) ptr @malloc(i64 noundef 128) #12
  br label %Vec_PtrGrow.exit.i

Vec_PtrGrow.exit.i:                               ; preds = %33, %31
  %35 = phi ptr [ %32, %31 ], [ %34, %33 ]
  store ptr %35, ptr %29, align 8, !tbaa !27
  store i32 16, ptr %2, align 8, !tbaa !26
  br label %Vec_PtrPush.exit

36:                                               ; preds = %26
  %37 = shl nuw nsw i32 %23, 1
  %38 = getelementptr inbounds nuw i8, ptr %2, i64 8
  %39 = load ptr, ptr %38, align 8, !tbaa !27
  %.not9.i10.i = icmp eq ptr %39, null
  %40 = zext nneg i32 %37 to i64
  %41 = shl nuw nsw i64 %40, 3
  br i1 %.not9.i10.i, label %44, label %42

42:                                               ; preds = %36
  %43 = tail call ptr @realloc(ptr noundef nonnull %39, i64 noundef %41) #11
  br label %46

44:                                               ; preds = %36
  %45 = tail call noalias ptr @malloc(i64 noundef %41) #12
  br label %46

46:                                               ; preds = %44, %42
  %47 = phi ptr [ %43, %42 ], [ %45, %44 ]
  store ptr %47, ptr %38, align 8, !tbaa !27
  store i32 %37, ptr %2, align 8, !tbaa !26
  br label %Vec_PtrPush.exit

Vec_PtrPush.exit:                                 ; preds = %.Vec_PtrGrow.exit11_crit_edge.i, %Vec_PtrGrow.exit.i, %46
  %48 = phi ptr [ %.pre.i, %.Vec_PtrGrow.exit11_crit_edge.i ], [ %47, %46 ], [ %35, %Vec_PtrGrow.exit.i ]
  %49 = load i32, ptr %22, align 4, !tbaa !24
  %50 = add nsw i32 %49, 1
  store i32 %50, ptr %22, align 4, !tbaa !24
  %51 = sext i32 %49 to i64
  %52 = getelementptr inbounds ptr, ptr %48, i64 %51
  store ptr %1, ptr %52, align 8, !tbaa !28
  br label %53

53:                                               ; preds = %15, %9, %6, %3, %Vec_PtrPush.exit
  %.0 = phi i32 [ 1, %Vec_PtrPush.exit ], [ 1, %3 ], [ 0, %6 ], [ 0, %9 ], [ 0, %15 ]
  ret i32 %.0
}